; Function Attrs: mustprogress nounwind uwtable
define void @_ZN19OpenColorIO_v2_5dev19AllocationTransformD2Ev(ptr noundef nonnull align 8 captures(none) dereferenceable(16) initializes((0, 8)) %0) unnamed_addr #3 align 2 personality ptr @__gxx_personality_v0 {
  store ptr getelementptr inbounds nuw inrange(-16, 56) (i8, ptr @_ZTVN19OpenColorIO_v2_5dev19AllocationTransformE, i64 16), ptr %0, align 8, !tbaa !12
  %2 = getelementptr inbounds nuw i8, ptr %0, i64 8
  %3 = load ptr, ptr %2, align 8, !tbaa !32
  %4 = icmp eq ptr %3, null
  br i1 %4, label %14, label %5

5:                                                ; preds = %1
  %6 = getelementptr inbounds nuw i8, ptr %3, i64 8
  %7 = load ptr, ptr %6, align 8, !tbaa !42
  %.not.i.i.i.i = icmp eq ptr %7, null
  br i1 %.not.i.i.i.i, label %_ZN19OpenColorIO_v2_5dev19AllocationTransform4ImplD2Ev.exit, label %8

8:                                                ; preds = %5
  %9 = getelementptr inbounds nuw i8, ptr %3, i64 24
  %10 = load ptr, ptr %9, align 8, !tbaa !43
  %11 = ptrtoint ptr %10 to i64
  %12 = ptrtoint ptr %7 to i64
  %13 = sub i64 %11, %12
  tail call void @_ZdlPvm(ptr noundef nonnull %7, i64 noundef %13) #25
  br label %_ZN19OpenColorIO_v2_5dev19AllocationTransform4ImplD2Ev.exit

_ZN19OpenColorIO_v2_5dev19AllocationTransform4ImplD2Ev.exit: ; preds = %5, %8
  tail call void @_ZdlPvm(ptr noundef nonnull %3, i64 noundef 32) #25
  br label %14

14:                                               ; preds = %_ZN19OpenColorIO_v2_5dev19AllocationTransform4ImplD2Ev.exit, %1
  store ptr null, ptr %2, align 8, !tbaa !32
  ret void
}